target datalayout = "e-m:e-p270:32:32-p271:32:32-p272:64:64-i64:64-i128:128-f80:128-n8:16:32:64-S128"
target triple = "x86_64-pc-linux-gnu"

@proto_register_sigcomp.ett = internal global [3 x ptr] [ptr @ett_sigcomp, ptr @ett_sigcomp_udvm, ptr @ett_sigcomp_udvm_exe], align 16
@proto_register_sigcomp.ett_raw = internal global [1 x ptr] [ptr @ett_raw_text], align 8
@.str.259 = private unnamed_addr constant [22 x i8] c"Signaling Compression\00", align 1
@.str.260 = private unnamed_addr constant [8 x i8] c"SIGCOMP\00", align 1
@.str.261 = private unnamed_addr constant [8 x i8] c"sigcomp\00", align 1
@proto_sigcomp = internal global i32 0, align 4
@.str.262 = private unnamed_addr constant [41 x i8] c"Decompressed SigComp message as raw text\00", align 1
@.str.263 = private unnamed_addr constant [12 x i8] c"Raw_SigComp\00", align 1
@.str.264 = private unnamed_addr constant [12 x i8] c"raw_sigcomp\00", align 1
@proto_raw_sigcomp = internal global i32 0, align 4
@sigcomp_handle = internal global ptr null, align 8
@.str.265 = private unnamed_addr constant [12 x i8] c"sigcomp_tcp\00", align 1
@sigcomp_tcp_handle = internal global ptr null, align 8
@.str.266 = private unnamed_addr constant [18 x i8] c"display.udvm.code\00", align 1
@.str.267 = private unnamed_addr constant [22 x i8] c"Dissect the UDVM code\00", align 1
@.str.268 = private unnamed_addr constant [51 x i8] c"Preference whether to Dissect the UDVM code or not\00", align 1
@dissect_udvm_code = internal global i8 0, align 1
@.str.269 = private unnamed_addr constant [17 x i8] c"display.bytecode\00", align 1
@.str.270 = private unnamed_addr constant [33 x i8] c"Display the bytecode of operands\00", align 1
@.str.271 = private unnamed_addr constant [67 x i8] c"preference whether to display the bytecode in UDVM operands or not\00", align 1
@display_udvm_bytecode = internal global i8 0, align 1
@.str.272 = private unnamed_addr constant [11 x i8] c"decomp.msg\00", align 1
@.str.273 = private unnamed_addr constant [19 x i8] c"Decompress message\00", align 1
@.str.274 = private unnamed_addr constant [48 x i8] c"preference whether to decompress message or not\00", align 1
@decompress = internal global i8 0, align 1
@.str.275 = private unnamed_addr constant [26 x i8] c"display.decomp.msg.as.txt\00", align 1
@.str.276 = private unnamed_addr constant [42 x i8] c"Displays the decompressed message as text\00", align 1
@.str.277 = private unnamed_addr constant [74 x i8] c"preference whether to display the decompressed message as raw text or not\00", align 1
@display_raw_txt = internal global i8 0, align 1
@.str.278 = private unnamed_addr constant [20 x i8] c"show.udvm.execution\00", align 1
@.str.279 = private unnamed_addr constant [35 x i8] c"Level of detail of UDVM execution:\00", align 1
@.str.280 = private unnamed_addr constant [137 x i8] c"'No-Printout' = UDVM executes silently, then increasing detail about execution of UDVM instructions; Warning! CPU intense at high detail\00", align 1
@udvm_print_detail_level = internal global i32 0, align 4

; Function Attrs: null_pointer_is_valid sspstrong uwtable
define hidden void @proto_register_sigcomp() #0 {
  %1 = alloca ptr, align 8
  %2 = alloca ptr, align 8
  call void @llvm.lifetime.start.p0(i64 8, ptr %1) #10
  call void @llvm.lifetime.start.p0(i64 8, ptr %2) #10
  %3 = call i32 @proto_register_protocol(ptr noundef @.str.259, ptr noundef @.str.260, ptr noundef @.str.261)
  store i32 %3, ptr @proto_sigcomp, align 4
  %4 = call i32 @proto_register_protocol(ptr noundef @.str.262, ptr noundef @.str.263, ptr noundef @.str.264)
  store i32 %4, ptr @proto_raw_sigcomp, align 4
  %5 = load i32, ptr @proto_sigcomp, align 4
  %6 = call ptr @register_dissector(ptr noundef @.str.261, ptr noundef @dissect_sigcomp, i32 noundef %5)
  store ptr %6, ptr @sigcomp_handle, align 8
  %7 = load i32, ptr @proto_sigcomp, align 4
  %8 = call ptr @register_dissector(ptr noundef @.str.265, ptr noundef @dissect_sigcomp_tcp, i32 noundef %7)
  store ptr %8, ptr @sigcomp_tcp_handle, align 8
  %9 = load i32, ptr @proto_sigcomp, align 4
  call void @proto_register_field_array(i32 noundef %9, ptr noundef @proto_register_sigcomp.hf, i32 noundef 100)
  call void @proto_register_subtree_array(ptr noundef @proto_register_sigcomp.ett, i32 noundef 3)
  call void @proto_register_subtree_array(ptr noundef @proto_register_sigcomp.ett_raw, i32 noundef 1)
  %10 = load i32, ptr @proto_sigcomp, align 4
  %11 = call ptr @expert_register_protocol(i32 noundef %10)
  store ptr %11, ptr %2, align 8
  %12 = load ptr, ptr %2, align 8
  call void @expert_register_field_array(ptr noundef %12, ptr noundef @proto_register_sigcomp.ei, i32 noundef 9)
  %13 = load i32, ptr @proto_sigcomp, align 4
  %14 = call ptr @prefs_register_protocol(i32 noundef %13, ptr noundef null)
  store ptr %14, ptr %1, align 8
  %15 = load ptr, ptr %1, align 8
  call void @prefs_register_bool_preference(ptr noundef %15, ptr noundef @.str.266, ptr noundef @.str.267, ptr noundef @.str.268, ptr noundef @dissect_udvm_code)
  %16 = load ptr, ptr %1, align 8
  call void @prefs_register_bool_preference(ptr noundef %16, ptr noundef @.str.269, ptr noundef @.str.270, ptr noundef @.str.271, ptr noundef @display_udvm_bytecode)
  %17 = load ptr, ptr %1, align 8
  call void @prefs_register_bool_preference(ptr noundef %17, ptr noundef @.str.272, ptr noundef @.str.273, ptr noundef @.str.274, ptr noundef @decompress)
  %18 = load ptr, ptr %1, align 8
  call void @prefs_register_bool_preference(ptr noundef %18, ptr noundef @.str.275, ptr noundef @.str.276, ptr noundef @.str.277, ptr noundef @display_raw_txt)
  %19 = load ptr, ptr %1, align 8
  call void @prefs_register_enum_preference(ptr noundef %19, ptr noundef @.str.278, ptr noundef @.str.279, ptr noundef @.str.280, ptr noundef @udvm_print_detail_level, ptr noundef @proto_register_sigcomp.udvm_detail_vals, i1 noundef zeroext false)
  call void @register_init_routine(ptr noundef @sigcomp_init_udvm)
  call void @register_cleanup_routine(ptr noundef @sigcomp_cleanup_udvm)
  call void @llvm.lifetime.end.p0(i64 8, ptr %2) #10
  call void @llvm.lifetime.end.p0(i64 8, ptr %1) #10
  ret void
}