; Function Attrs: null_pointer_is_valid sspstrong uwtable
define hidden void @proto_register_sigcomp() local_unnamed_addr #0 {
  %1 = tail call i32 @proto_register_protocol(ptr noundef nonnull @.str.259, ptr noundef nonnull @.str.260, ptr noundef nonnull @.str.261)
  store i32 %1, ptr @proto_sigcomp, align 4
  %2 = tail call i32 @proto_register_protocol(ptr noundef nonnull @.str.262, ptr noundef nonnull @.str.263, ptr noundef nonnull @.str.264)
  store i32 %2, ptr @proto_raw_sigcomp, align 4
  %3 = load i32, ptr @proto_sigcomp, align 4
  %4 = tail call ptr @register_dissector(ptr noundef nonnull @.str.261, ptr noundef nonnull @dissect_sigcomp, i32 noundef %3)
  store ptr %4, ptr @sigcomp_handle, align 8
  %5 = load i32, ptr @proto_sigcomp, align 4
  %6 = tail call ptr @register_dissector(ptr noundef nonnull @.str.265, ptr noundef nonnull @dissect_sigcomp_tcp, i32 noundef %5)
  store ptr %6, ptr @sigcomp_tcp_handle, align 8
  %7 = load i32, ptr @proto_sigcomp, align 4
  tail call void @proto_register_field_array(i32 noundef %7, ptr noundef nonnull @proto_register_sigcomp.hf, i32 noundef 100)
  tail call void @proto_register_subtree_array(ptr noundef nonnull @proto_register_sigcomp.ett, i32 noundef 3)
  tail call void @proto_register_subtree_array(ptr noundef nonnull @proto_register_sigcomp.ett_raw, i32 noundef 1)
  %8 = load i32, ptr @proto_sigcomp, align 4
  %9 = tail call ptr @expert_register_protocol(i32 noundef %8)
  tail call void @expert_register_field_array(ptr noundef %9, ptr noundef nonnull @proto_register_sigcomp.ei, i32 noundef 9)
  %10 = load i32, ptr @proto_sigcomp, align 4
  %11 = tail call ptr @prefs_register_protocol(i32 noundef %10, ptr noundef null)
  tail call void @prefs_register_bool_preference(ptr noundef %11, ptr noundef nonnull @.str.266, ptr noundef nonnull @.str.267, ptr noundef nonnull @.str.268, ptr noundef nonnull @dissect_udvm_code)
  tail call void @prefs_register_bool_preference(ptr noundef %11, ptr noundef nonnull @.str.269, ptr noundef nonnull @.str.270, ptr noundef nonnull @.str.271, ptr noundef nonnull @display_udvm_bytecode)
  tail call void @prefs_register_bool_preference(ptr noundef %11, ptr noundef nonnull @.str.272, ptr noundef nonnull @.str.273, ptr noundef nonnull @.str.274, ptr noundef nonnull @decompress)
  tail call void @prefs_register_bool_preference(ptr noundef %11, ptr noundef nonnull @.str.275, ptr noundef nonnull @.str.276, ptr noundef nonnull @.str.277, ptr noundef nonnull @display_raw_txt)
  tail call void @prefs_register_enum_preference(ptr noundef %11, ptr noundef nonnull @.str.278, ptr noundef nonnull @.str.279, ptr noundef nonnull @.str.280, ptr noundef nonnull @udvm_print_detail_level, ptr noundef nonnull @proto_register_sigcomp.udvm_detail_vals, i1 noundef zeroext false)
  tail call void @register_init_routine(ptr noundef nonnull @sigcomp_init_udvm)
  tail call void @register_cleanup_routine(ptr noundef nonnull @sigcomp_cleanup_udvm)
  ret void
}